0000000000401994 <start_farm>:
  401994:	b8 01 00 00 00       	mov    $0x1,%eax
  401999:	c3                   	retq   

000000000040199a <getval_142>:
  40199a:	b8 fb 78 90 90       	mov    $0x909078fb,%eax
  40199f:	c3                   	retq   

00000000004019a0 <addval_273>:
  4019a0:	8d 87 48 89 c7 c3    	lea    -0x3c3876b8(%rdi),%eax
  4019a6:	c3                   	retq   

00000000004019a7 <addval_219>:
  4019a7:	8d 87 51 73 58 90    	lea    -0x6fa78caf(%rdi),%eax
  4019ad:	c3                   	retq   

00000000004019ae <setval_237>:
  4019ae:	c7 07 48 89 c7 c7    	movl   $0xc7c78948,(%rdi)
  4019b4:	c3                   	retq   

00000000004019b5 <setval_424>:
  4019b5:	c7 07 54 c2 58 92    	movl   $0x9258c254,(%rdi)
  4019bb:	c3                   	retq   

00000000004019bc <setval_470>:
  4019bc:	c7 07 63 48 8d c7    	movl   $0xc78d4863,(%rdi)
  4019c2:	c3                   	retq   

00000000004019c3 <setval_426>:
  4019c3:	c7 07 48 89 c7 90    	movl   $0x90c78948,(%rdi)
  4019c9:	c3                   	retq   

00000000004019ca <getval_280>:
  4019ca:	b8 29 58 90 c3       	mov    $0xc3905829,%eax
  4019cf:	c3                   	retq   

00000000004019d0 <mid_farm>:
  4019d0:	b8 01 00 00 00       	mov    $0x1,%eax
  4019d5:	c3                   	retq   

00000000004019d6 <add_xy>:
  4019d6:	48 8d 04 37          	lea    (%rdi,%rsi,1),%rax
  4019da:	c3                   	retq   

00000000004019db <getval_481>:
  4019db:	b8 5c 89 c2 90       	mov    $0x90c2895c,%eax
  4019e0:	c3                   	retq   

00000000004019e1 <setval_296>:
  4019e1:	c7 07 99 d1 90 90    	movl   $0x9090d199,(%rdi)
  4019e7:	c3                   	retq   

00000000004019e8 <addval_113>:
  4019e8:	8d 87 89 ce 78 c9    	lea    -0x36873177(%rdi),%eax
  4019ee:	c3                   	retq   

00000000004019ef <addval_490>:
  4019ef:	8d 87 8d d1 20 db    	lea    -0x24df2e73(%rdi),%eax
  4019f5:	c3                   	retq   

00000000004019f6 <getval_226>:
  4019f6:	b8 89 d1 48 c0       	mov    $0xc048d189,%eax
  4019fb:	c3                   	retq   

00000000004019fc <setval_384>:
  4019fc:	c7 07 81 d1 84 c0    	movl   $0xc084d181,(%rdi)
  401a02:	c3                   	retq   

0000000000401a03 <addval_190>:
  401a03:	8d 87 41 48 89 e0    	lea    -0x1f76b7bf(%rdi),%eaxC
  401a09:	c3                   	retq   

0000000000401a0a <setval_276>:
  401a0a:	c7 07 88 c2 08 c9    	movl   $0xc908c288,(%rdi)
  401a10:	c3                   	retq   

0000000000401a11 <addval_436>:
  401a11:	8d 87 89 ce 90 90    	lea    -0x6f6f3177(%rdi),%eax
  401a17:	c3                   	retq   

0000000000401a18 <getval_345>:
  401a18:	b8 48 89 e0 c1       	mov    $0xc1e08948,%eax
  401a1d:	c3                   	retq   

0000000000401a1e <addval_479>:
  401a1e:	8d 87 89 c2 00 c9    	lea    -0x36ff3d77(%rdi),%eax
  401a24:	c3                   	retq   

0000000000401a25 <addval_187>:
  401a25:	8d 87 89 ce 38 c0    	lea    -0x3fc73177(%rdi),%eax
  401a2b:	c3                   	retq   

0000000000401a2c <setval_248>:
  401a2c:	c7 07 81 ce 08 db    	movl   $0xdb08ce81,(%rdi)
  401a32:	c3                   	retq   

0000000000401a33 <getval_159>:
  401a33:	b8 89 d1 38 c9       	mov    $0xc938d189,%eax
  401a38:	c3                   	retq   

0000000000401a39 <addval_110>:
  401a39:	8d 87 c8 89 e0 c3    	lea    -0x3c1f7638(%rdi),%eax
  401a3f:	c3                   	retq   

0000000000401a40 <addval_487>:
  401a40:	8d 87 89 c2 84 c0    	lea    -0x3f7b3d77(%rdi),%eax
  401a46:	c3                   	retq   

0000000000401a47 <addval_201>:
  401a47:	8d 87 48 89 e0 c7    	lea    -0x381f76b8(%rdi),%eax
  401a4d:	c3                   	retq   

0000000000401a4e <getval_272>:
  401a4e:	b8 99 d1 08 d2       	mov    $0xd208d199,%eax
  401a53:	c3                   	retq   

0000000000401a54 <getval_155>:
  401a54:	b8 89 c2 c4 c9       	mov    $0xc9c4c289,%eax
  401a59:	c3                   	retq   

0000000000401a5a <setval_299>:
  401a5a:	c7 07 48 89 e0 91    	movl   $0x91e08948,(%rdi)
  401a60:	c3                   	retq   

0000000000401a61 <addval_404>:
  401a61:	8d 87 89 ce 92 c3    	lea    -0x3c6d3177(%rdi),%eax
  401a67:	c3                   	retq   

0000000000401a68 <getval_311>:
  401a68:	b8 89 d1 08 db       	mov    $0xdb08d189,%eax
  401a6d:	c3                   	retq   

0000000000401a6e <setval_167>:
  401a6e:	c7 07 89 d1 91 c3    	movl   $0xc391d189,(%rdi)
  401a74:	c3                   	retq   

0000000000401a75 <setval_328>:
  401a75:	c7 07 81 c2 38 d2    	movl   $0xd238c281,(%rdi)
  401a7b:	c3                   	retq   

0000000000401a7c <setval_450>:
  401a7c:	c7 07 09 ce 08 c9    	movl   $0xc908ce09,(%rdi)
  401a82:	c3                   	retq   

0000000000401a83 <addval_358>:
  401a83:	8d 87 08 89 e0 90    	lea    -0x6f1f76f8(%rdi),%eax
  401a89:	c3                   	retq   

0000000000401a8a <addval_124>:
  401a8a:	8d 87 89 c2 c7 3c    	lea    0x3cc7c289(%rdi),%eax
  401a90:	c3                   	retq   

0000000000401a91 <getval_169>:
  401a91:	b8 88 ce 20 c0       	mov    $0xc020ce88,%eax
  401a96:	c3                   	retq   

0000000000401a97 <setval_181>:
  401a97:	c7 07 48 89 e0 c2    	movl   $0xc2e08948,(%rdi)
  401a9d:	c3                   	retq   

0000000000401a9e <addval_184>:
  401a9e:	8d 87 89 c2 60 d2    	lea    -0x2d9f3d77(%rdi),%eax
  401aa4:	c3                   	retq   

0000000000401aa5 <getval_472>:
  401aa5:	b8 8d ce 20 d2       	mov    $0xd220ce8d,%eax
  401aaa:	c3                   	retq   

0000000000401aab <setval_350>:
  401aab:	c7 07 48 89 e0 90    	movl   $0x90e08948,(%rdi)
  401ab1:	c3                   	retq   

0000000000401ab2 <end_farm>:
  401ab2:	b8 01 00 00 00       	mov    $0x1,%eax
  401ab7:	c3                   	retq   
  401ab8:	90                   	nop
  401ab9:	90                   	nop
  401aba:	90                   	nop
  401abb:	90                   	nop
  401abc:	90                   	nop
  401abd:	90                   	nop
  401abe:	90                   	nop
  401abf:	90                   	nop
